; Function Attrs: nounwind uwtable
define range(i32 -21, 1) i32 @CVodeGetCurrentOrder(ptr noundef readonly captures(address_is_null) %0, ptr noundef writeonly captures(none) %1) local_unnamed_addr #0 {
  %3 = icmp eq ptr %0, null
  br i1 %3, label %4, label %5

4:                                                ; preds = %2
  tail call void (ptr, i32, ptr, ptr, ptr, ...) @cvProcessError(ptr noundef null, i32 noundef -21, ptr noundef nonnull @.str, ptr noundef nonnull @.str.47, ptr noundef nonnull @.str.2) #6
  br label %8

5:                                                ; preds = %2
  %6 = getelementptr inbounds nuw i8, ptr %0, i64 920
  %7 = load i32, ptr %6, align 8, !tbaa !70
  store i32 %7, ptr %1, align 4, !tbaa !44
  br label %8

8:                                                ; preds = %5, %4
  %.0 = phi i32 [ -21, %4 ], [ 0, %5 ]
  ret i32 %.0
}